; Function Attrs: nounwind uwtable
define internal noundef i32 @_popup_scroll(ptr readnone captures(none) %0, ptr noundef %1, ptr readnone captures(none) %2) #0 {
  %4 = alloca i32, align 4
  %5 = load ptr, ptr getelementptr inbounds nuw (i8, ptr @darktable, i64 128), align 8, !tbaa !67
  %6 = load ptr, ptr %5, align 8, !tbaa !94
  call void @llvm.lifetime.start.p0(i64 4, ptr nonnull %4) #19
  store i32 0, ptr %4, align 4, !tbaa !79
  %7 = call i32 @dt_gui_get_scroll_unit_delta(ptr noundef %1, ptr noundef nonnull %4) #19
  %.not = icmp eq i32 %7, 0
  br i1 %.not, label %18, label %8

8:                                                ; preds = %3
  %9 = getelementptr inbounds nuw i8, ptr %6, i64 40
  %10 = load i32, ptr %9, align 8, !tbaa !105
  %11 = icmp eq i32 %10, 2
  %12 = load i32, ptr %4, align 4, !tbaa !79
  br i1 %11, label %13, label %16

13:                                               ; preds = %8
  %14 = getelementptr inbounds nuw i8, ptr %6, i64 448
  %15 = load i32, ptr %14, align 8, !tbaa !106
  call fastcc void @_combobox_next_sensitive(ptr noundef nonnull %6, i32 noundef %12, i32 noundef 0, i32 noundef %15)
  br label %18

16:                                               ; preds = %8
  %17 = sitofp i32 %12 to float
  call fastcc void @_slider_zoom_range(ptr noundef nonnull %6, float noundef %17)
  br label %18

18:                                               ; preds = %13, %16, %3
  call void @llvm.lifetime.end.p0(i64 4, ptr nonnull %4) #19
  ret i32 1
}